(lp0
(i__main__
Course
p1
(dp2
S'time_cost'
p3
I10
sS'start_time'
p4
cdatetime
date
p5
(S'\x07\xde\n\x16'
p6
tp7
Rp8
sS'name'
p9
S'Introduction to game design'
p10
sS'end_time'
p11
g5
(S'\x07\xde\x0c\x03'
p12
tp13
Rp14
sba(i__main__
Course
p15
(dp16
g3
I6
sg4
g5
(S'\x07\xde\n\x08'
p17
tp18
Rp19
sg9
S'Design and development of educational technology'
p20
sg11
g5
(S'\x07\xde\x0b\x13'
p21
tp22
Rp23
sba.